target datalayout = "e-m:e-p270:32:32-p271:32:32-p272:64:64-i64:64-i128:128-f80:128-n8:16:32:64-S128"
target triple = "x86_64-pc-linux-gnu"

%struct.H5D_t = type { %struct.H5O_loc_t, %struct.H5G_name_t, ptr }
%struct.H5O_loc_t = type { ptr, i64, i8 }
%struct.H5G_name_t = type { ptr, ptr, i32 }
%struct.H5D_shared_t = type { i64, i8, i64, ptr, ptr, i64, i64, %struct.H5D_dcpl_cache_t, %struct.H5O_layout_t, i8, i32, [32 x i64], [32 x i64], [32 x i64], %struct.anon.6, %struct.H5D_append_flush_t, ptr, ptr }
%struct.H5D_dcpl_cache_t = type { %struct.H5O_fill_t, %struct.H5O_pline_t, %struct.H5O_efl_t }
%struct.H5O_fill_t = type { %struct.H5O_shared_t, i32, ptr, i64, ptr, i32, i32, i8 }
%struct.H5O_shared_t = type { i32, ptr, i32, %union.anon }
%union.anon = type { %struct.H5O_mesg_loc_t }
%struct.H5O_mesg_loc_t = type { i32, i64 }
%struct.H5O_pline_t = type { %struct.H5O_shared_t, i32, i64, i64, ptr }
%struct.H5O_efl_t = type { i64, i64, i64, ptr }
%struct.H5O_layout_t = type { i32, i32, ptr, %union.anon.0, %struct.H5O_storage_t }
%union.anon.0 = type { %struct.H5O_layout_chunk_t }
%struct.H5O_layout_chunk_t = type { i32, i8, i32, [33 x i32], i32, i32, i64, i64, [33 x i64], [33 x i64], [33 x i64], [33 x i64], %union.anon.1 }
%union.anon.1 = type { %struct.H5O_layout_chunk_earray_t }
%struct.H5O_layout_chunk_earray_t = type { %struct.anon.2, i32, [33 x i32], [33 x i64], [33 x i64] }
%struct.anon.2 = type { i8, i8, i8, i8, i8 }
%struct.H5O_storage_t = type { i32, %union.anon.4 }
%union.anon.4 = type { %struct.H5O_storage_virtual_t }
%struct.H5O_storage_virtual_t = type { %struct.H5HG_t, i64, ptr, i64, [32 x i64], i32, i64, i64, i64, i8 }
%struct.H5HG_t = type { i64, i64 }
%struct.anon.6 = type { %struct.H5D_rdcdc_t, %struct.H5D_rdcc_t }
%struct.H5D_rdcdc_t = type { ptr, i64, i64, i64, i8 }
%struct.H5D_rdcc_t = type { %struct.anon.7, i64, i64, double, ptr, ptr, ptr, i64, i32, %struct.H5D_chunk_cached_t, ptr, ptr, ptr, ptr, [32 x i64], [32 x i64], [32 x i32] }
%struct.anon.7 = type { i32, i32, i32, i32 }
%struct.H5D_chunk_cached_t = type { i8, [33 x i64], i64, i32, i64, i32 }
%struct.H5D_append_flush_t = type { i32, [32 x i64], ptr, ptr }
%struct.H5D_chk_idx_info_t = type { ptr, ptr, ptr, ptr }
%struct.H5O_storage_chunk_t = type { i32, i64, ptr, %union.anon.5 }
%union.anon.5 = type { %struct.H5O_storage_chunk_btree_t }
%struct.H5O_storage_chunk_btree_t = type { i64, ptr }
%struct.H5D_chunk_ops_t = type { i8, ptr, ptr, ptr, ptr, ptr, ptr, ptr, ptr, ptr, ptr, ptr, ptr, ptr, ptr, ptr, ptr, ptr, ptr, ptr }
%struct.H5F_block_t = type { i64, i64 }
%struct.H5D_rdcc_ent_t = type { i8, i8, i8, i32, [33 x i64], i32, i32, %struct.H5F_block_t, i64, ptr, i32, ptr, ptr, ptr, ptr }

@H5D_init_g = external global i8, align 1
@H5_libterm_g = external global i8, align 1
@.str.1 = private unnamed_addr constant [102 x i8] c"generated/home/dtcxzyw/WorkSpace/Projects/compilers/llvm-opt-benchmark/bench/hdf5/hdf5/src/H5Dchunk.c\00", align 1
@H5E_DATASET_g = external global i64, align 8
@H5E_IO_g = external global i64, align 8
@H5E_CANTFREE_g = external global i64, align 8
@H5E_CANTFLUSH_g = external global i64, align 8
@.str.47 = private unnamed_addr constant [44 x i8] c"unable to flush one or more raw data chunks\00", align 1
@.str.66 = private unnamed_addr constant [35 x i8] c"unable to release chunk index info\00", align 1
@H5_H5D_rdcc_ent_ptr_t_seq_free_list = internal global { { i8, [3 x i8], i32, i32, [4 x i8], i64, ptr, ptr }, i64 } { { i8, [3 x i8], i32, i32, [4 x i8], i64, ptr, ptr } { i8 0, [3 x i8] zeroinitializer, i32 0, i32 0, [4 x i8] zeroinitializer, i64 0, ptr @.str.96, ptr null }, i64 8 }, align 8
@__func__.H5D__chunk_dest = private unnamed_addr constant [16 x i8] c"H5D__chunk_dest\00", align 1

; Function Attrs: nounwind uwtable
define internal i32 @H5D__chunk_dest(ptr noundef %0) #0 {
  %2 = alloca ptr, align 8
  %3 = alloca %struct.H5D_chk_idx_info_t, align 8
  %4 = alloca ptr, align 8
  %5 = alloca ptr, align 8
  %6 = alloca ptr, align 8
  %7 = alloca i32, align 4
  %8 = alloca ptr, align 8
  %9 = alloca i32, align 4
  %10 = alloca i64, align 8
  %11 = alloca i8, align 1
  store ptr %0, ptr %2, align 8, !tbaa !8
  call void @llvm.lifetime.start.p0(i64 32, ptr %3) #10
  call void @llvm.lifetime.start.p0(i64 8, ptr %4) #10
  %12 = load ptr, ptr %2, align 8, !tbaa !8
  %13 = getelementptr inbounds nuw %struct.H5D_t, ptr %12, i32 0, i32 2
  %14 = load ptr, ptr %13, align 8, !tbaa !16
  %15 = getelementptr inbounds nuw %struct.H5D_shared_t, ptr %14, i32 0, i32 14
  %16 = getelementptr inbounds nuw %struct.anon.6, ptr %15, i32 0, i32 1
  store ptr %16, ptr %4, align 8, !tbaa !54
  call void @llvm.lifetime.start.p0(i64 8, ptr %5) #10
  store ptr null, ptr %5, align 8, !tbaa !183
  call void @llvm.lifetime.start.p0(i64 8, ptr %6) #10
  store ptr null, ptr %6, align 8, !tbaa !183
  call void @llvm.lifetime.start.p0(i64 4, ptr %7) #10
  store i32 0, ptr %7, align 4, !tbaa !10
  call void @llvm.lifetime.start.p0(i64 8, ptr %8) #10
  %17 = load ptr, ptr %2, align 8, !tbaa !8
  %18 = getelementptr inbounds nuw %struct.H5D_t, ptr %17, i32 0, i32 2
  %19 = load ptr, ptr %18, align 8, !tbaa !16
  %20 = getelementptr inbounds nuw %struct.H5D_shared_t, ptr %19, i32 0, i32 8
  %21 = getelementptr inbounds nuw %struct.H5O_layout_t, ptr %20, i32 0, i32 4
  %22 = getelementptr inbounds nuw %struct.H5O_storage_t, ptr %21, i32 0, i32 1
  store ptr %22, ptr %8, align 8, !tbaa !56
  call void @llvm.lifetime.start.p0(i64 4, ptr %9) #10
  store i32 0, ptr %9, align 4, !tbaa !10
  call void @llvm.lifetime.start.p0(i64 8, ptr %10) #10
  store i64 -1, ptr %10, align 8, !tbaa !24
  call void @llvm.lifetime.start.p0(i64 1, ptr %11) #10
  store i8 0, ptr %11, align 1, !tbaa !12
  %23 = load ptr, ptr %2, align 8, !tbaa !8
  %24 = getelementptr inbounds nuw %struct.H5D_t, ptr %23, i32 0, i32 0
  %25 = getelementptr inbounds nuw %struct.H5O_loc_t, ptr %24, i32 0, i32 1
  %26 = load i64, ptr %25, align 8, !tbaa !78
  call void @H5AC_tag(i64 noundef %26, ptr noundef %10)
  %27 = load i8, ptr @H5D_init_g, align 1, !tbaa !12, !range !14, !noundef !15
  %28 = trunc i8 %27 to i1
  br i1 %28, label %33, label %29

29:                                               ; preds = %1
  %30 = load i8, ptr @H5_libterm_g, align 1, !tbaa !12, !range !14, !noundef !15
  %31 = trunc i8 %30 to i1
  %32 = xor i1 %31, true
  br label %33

33:                                               ; preds = %29, %1
  %34 = phi i1 [ true, %1 ], [ %32, %29 ]
  %35 = xor i1 %34, true
  %36 = xor i1 %35, true
  %37 = zext i1 %36 to i32
  %38 = sext i32 %37 to i64
  %39 = call i64 @llvm.expect.i64(i64 %38, i64 1)
  %40 = icmp ne i64 %39, 0
  br i1 %40, label %41, label %152

41:                                               ; preds = %33
  br label %42

42:                                               ; preds = %41
  br label %43

43:                                               ; preds = %42
  br label %44

44:                                               ; preds = %43
  %45 = load ptr, ptr %4, align 8, !tbaa !54
  %46 = getelementptr inbounds nuw %struct.H5D_rdcc_t, ptr %45, i32 0, i32 4
  %47 = load ptr, ptr %46, align 8, !tbaa !182
  store ptr %47, ptr %5, align 8, !tbaa !183
  br label %48

48:                                               ; preds = %63, %44
  %49 = load ptr, ptr %5, align 8, !tbaa !183
  %50 = icmp ne ptr %49, null
  br i1 %50, label %51, label %65

51:                                               ; preds = %48
  %52 = load ptr, ptr %5, align 8, !tbaa !183
  %53 = getelementptr inbounds nuw %struct.H5D_rdcc_ent_t, ptr %52, i32 0, i32 11
  %54 = load ptr, ptr %53, align 8, !tbaa !184
  store ptr %54, ptr %6, align 8, !tbaa !183
  %55 = load ptr, ptr %2, align 8, !tbaa !8
  %56 = load ptr, ptr %5, align 8, !tbaa !183
  %57 = call i32 @H5D__chunk_cache_evict(ptr noundef %55, ptr noundef %56, i1 noundef zeroext true)
  %58 = icmp slt i32 %57, 0
  br i1 %58, label %59, label %62

59:                                               ; preds = %51
  %60 = load i32, ptr %7, align 4, !tbaa !10
  %61 = add nsw i32 %60, 1
  store i32 %61, ptr %7, align 4, !tbaa !10
  br label %62

62:                                               ; preds = %59, %51
  br label %63

63:                                               ; preds = %62
  %64 = load ptr, ptr %6, align 8, !tbaa !183
  store ptr %64, ptr %5, align 8, !tbaa !183
  br label %48, !llvm.loop !187

65:                                               ; preds = %48
  %66 = load i32, ptr %7, align 4, !tbaa !10
  %67 = icmp ne i32 %66, 0
  br i1 %67, label %68, label %84

68:                                               ; preds = %65
  br label %69

69:                                               ; preds = %68
  br label %70

70:                                               ; preds = %69
  br label %71

71:                                               ; preds = %70
  %72 = load i64, ptr @H5E_IO_g, align 8, !tbaa !24
  %73 = load i64, ptr @H5E_CANTFLUSH_g, align 8, !tbaa !24
  %74 = call i32 (ptr, ptr, i32, i64, i64, ptr, ...) @H5E_printf_stack(ptr noundef @.str.1, ptr noundef @__func__.H5D__chunk_dest, i32 noundef 3515, i64 noundef %72, i64 noundef %73, ptr noundef @.str.47)
  br label %75

75:                                               ; preds = %71
  br label %76

76:                                               ; preds = %75
  store i8 1, ptr %11, align 1, !tbaa !12
  %77 = load i8, ptr %11, align 1, !tbaa !12, !range !14, !noundef !15
  %78 = trunc i8 %77 to i1
  %79 = zext i1 %78 to i8
  store i8 %79, ptr %11, align 1, !tbaa !12
  br label %80

80:                                               ; preds = %76
  br label %81

81:                                               ; preds = %80
  store i32 -1, ptr %9, align 4, !tbaa !10
  br label %82

82:                                               ; preds = %81
  br label %83

83:                                               ; preds = %82
  br label %84

84:                                               ; preds = %83, %65
  %85 = load ptr, ptr %4, align 8, !tbaa !54
  %86 = getelementptr inbounds nuw %struct.H5D_rdcc_t, ptr %85, i32 0, i32 10
  %87 = load ptr, ptr %86, align 8, !tbaa !63
  %88 = icmp ne ptr %87, null
  br i1 %88, label %89, label %96

89:                                               ; preds = %84
  %90 = load ptr, ptr %4, align 8, !tbaa !54
  %91 = getelementptr inbounds nuw %struct.H5D_rdcc_t, ptr %90, i32 0, i32 10
  %92 = load ptr, ptr %91, align 8, !tbaa !63
  %93 = call ptr @H5FL_seq_free(ptr noundef @H5_H5D_rdcc_ent_ptr_t_seq_free_list, ptr noundef %92)
  %94 = load ptr, ptr %4, align 8, !tbaa !54
  %95 = getelementptr inbounds nuw %struct.H5D_rdcc_t, ptr %94, i32 0, i32 10
  store ptr %93, ptr %95, align 8, !tbaa !63
  br label %96

96:                                               ; preds = %89, %84
  %97 = load ptr, ptr %4, align 8, !tbaa !54
  call void @llvm.memset.p0.i64(ptr align 8 %97, i8 0, i64 1056, i1 false)
  %98 = load ptr, ptr %2, align 8, !tbaa !8
  %99 = getelementptr inbounds nuw %struct.H5D_t, ptr %98, i32 0, i32 0
  %100 = getelementptr inbounds nuw %struct.H5O_loc_t, ptr %99, i32 0, i32 0
  %101 = load ptr, ptr %100, align 8, !tbaa !172
  %102 = getelementptr inbounds nuw %struct.H5D_chk_idx_info_t, ptr %3, i32 0, i32 0
  store ptr %101, ptr %102, align 8, !tbaa !65
  %103 = load ptr, ptr %2, align 8, !tbaa !8
  %104 = getelementptr inbounds nuw %struct.H5D_t, ptr %103, i32 0, i32 2
  %105 = load ptr, ptr %104, align 8, !tbaa !16
  %106 = getelementptr inbounds nuw %struct.H5D_shared_t, ptr %105, i32 0, i32 7
  %107 = getelementptr inbounds nuw %struct.H5D_dcpl_cache_t, ptr %106, i32 0, i32 1
  %108 = getelementptr inbounds nuw %struct.H5D_chk_idx_info_t, ptr %3, i32 0, i32 1
  store ptr %107, ptr %108, align 8, !tbaa !69
  %109 = load ptr, ptr %2, align 8, !tbaa !8
  %110 = getelementptr inbounds nuw %struct.H5D_t, ptr %109, i32 0, i32 2
  %111 = load ptr, ptr %110, align 8, !tbaa !16
  %112 = getelementptr inbounds nuw %struct.H5D_shared_t, ptr %111, i32 0, i32 8
  %113 = getelementptr inbounds nuw %struct.H5O_layout_t, ptr %112, i32 0, i32 3
  %114 = getelementptr inbounds nuw %struct.H5D_chk_idx_info_t, ptr %3, i32 0, i32 2
  store ptr %113, ptr %114, align 8, !tbaa !70
  %115 = load ptr, ptr %8, align 8, !tbaa !56
  %116 = getelementptr inbounds nuw %struct.H5D_chk_idx_info_t, ptr %3, i32 0, i32 3
  store ptr %115, ptr %116, align 8, !tbaa !71
  %117 = load ptr, ptr %8, align 8, !tbaa !56
  %118 = getelementptr inbounds nuw %struct.H5O_storage_chunk_t, ptr %117, i32 0, i32 2
  %119 = load ptr, ptr %118, align 8, !tbaa !72
  %120 = getelementptr inbounds nuw %struct.H5D_chunk_ops_t, ptr %119, i32 0, i32 19
  %121 = load ptr, ptr %120, align 8, !tbaa !79
  %122 = icmp ne ptr %121, null
  br i1 %122, label %123, label %150

123:                                              ; preds = %96
  %124 = load ptr, ptr %8, align 8, !tbaa !56
  %125 = getelementptr inbounds nuw %struct.H5O_storage_chunk_t, ptr %124, i32 0, i32 2
  %126 = load ptr, ptr %125, align 8, !tbaa !72
  %127 = getelementptr inbounds nuw %struct.H5D_chunk_ops_t, ptr %126, i32 0, i32 19
  %128 = load ptr, ptr %127, align 8, !tbaa !79
  %129 = call i32 %128(ptr noundef %3)
  %130 = icmp slt i32 %129, 0
  br i1 %130, label %131, label %150

131:                                              ; preds = %123
  br label %132

132:                                              ; preds = %131
  br label %133

133:                                              ; preds = %132
  br label %134

134:                                              ; preds = %133
  %135 = load i64, ptr @H5E_DATASET_g, align 8, !tbaa !24
  %136 = load i64, ptr @H5E_CANTFREE_g, align 8, !tbaa !24
  %137 = call i32 (ptr, ptr, i32, i64, i64, ptr, ...) @H5E_printf_stack(ptr noundef @.str.1, ptr noundef @__func__.H5D__chunk_dest, i32 noundef 3530, i64 noundef %135, i64 noundef %136, ptr noundef @.str.66)
  br label %138

138:                                              ; preds = %134
  br label %139

139:                                              ; preds = %138
  store i8 1, ptr %11, align 1, !tbaa !12
  %140 = load i8, ptr %11, align 1, !tbaa !12, !range !14, !noundef !15
  %141 = trunc i8 %140 to i1
  %142 = zext i1 %141 to i8
  store i8 %142, ptr %11, align 1, !tbaa !12
  br label %143

143:                                              ; preds = %139
  br label %144

144:                                              ; preds = %143
  br label %145

145:                                              ; preds = %144
  store i32 -1, ptr %9, align 4, !tbaa !10
  br label %151

146:                                              ; No predecessors!
  br label %147

147:                                              ; preds = %146
  br label %148

148:                                              ; preds = %147
  br label %149

149:                                              ; preds = %148
  br label %150

150:                                              ; preds = %149, %123, %96
  br label %151

151:                                              ; preds = %150, %145
  br label %152

152:                                              ; preds = %151, %33
  %153 = load i64, ptr %10, align 8, !tbaa !24
  call void @H5AC_tag(i64 noundef %153, ptr noundef null)
  %154 = load i32, ptr %9, align 4, !tbaa !10
  call void @llvm.lifetime.end.p0(i64 1, ptr %11) #10
  call void @llvm.lifetime.end.p0(i64 8, ptr %10) #10
  call void @llvm.lifetime.end.p0(i64 4, ptr %9) #10
  call void @llvm.lifetime.end.p0(i64 8, ptr %8) #10
  call void @llvm.lifetime.end.p0(i64 4, ptr %7) #10
  call void @llvm.lifetime.end.p0(i64 8, ptr %6) #10
  call void @llvm.lifetime.end.p0(i64 8, ptr %5) #10
  call void @llvm.lifetime.end.p0(i64 8, ptr %4) #10
  call void @llvm.lifetime.end.p0(i64 32, ptr %3) #10
  ret i32 %154
}