; Function Attrs: nounwind uwtable
define internal range(i32 -1, 1) i32 @H5D__chunk_dest(ptr noundef %0) #0 {
  %2 = alloca %struct.H5D_chk_idx_info_t, align 8
  %3 = alloca i64, align 8
  call void @llvm.lifetime.start.p0(i64 32, ptr nonnull %2) #15
  %4 = getelementptr inbounds nuw i8, ptr %0, i64 48
  %5 = load ptr, ptr %4, align 8, !tbaa !10
  %6 = getelementptr inbounds nuw i8, ptr %5, i64 3320
  %7 = getelementptr inbounds nuw i8, ptr %5, i64 2168
  call void @llvm.lifetime.start.p0(i64 8, ptr nonnull %3) #15
  store i64 -1, ptr %3, align 8, !tbaa !21
  %8 = getelementptr inbounds nuw i8, ptr %0, i64 8
  %9 = load i64, ptr %8, align 8, !tbaa !74
  call void @H5AC_tag(i64 noundef %9, ptr noundef nonnull %3) #15
  %10 = load i8, ptr @H5D_init_g, align 1, !tbaa !3, !range !7, !noundef !8
  %11 = trunc nuw i8 %10 to i1
  %12 = load i8, ptr @H5_libterm_g, align 1, !range !7
  %13 = trunc nuw i8 %12 to i1
  %14 = xor i1 %13, true
  %15 = select i1 %11, i1 true, i1 %14
  br i1 %15, label %16, label %51, !prof !9

16:                                               ; preds = %1
  %17 = getelementptr inbounds nuw i8, ptr %5, i64 3360
  %18 = load ptr, ptr %17, align 8, !tbaa !213
  %.not31 = icmp eq ptr %18, null
  br i1 %.not31, label %._crit_edge.thread, label %.lr.ph

.lr.ph:                                           ; preds = %16, %.lr.ph
  %.02333 = phi ptr [ %20, %.lr.ph ], [ %18, %16 ]
  %.02432 = phi i32 [ %spec.select, %.lr.ph ], [ 0, %16 ]
  %19 = getelementptr inbounds nuw i8, ptr %.02333, i64 320
  %20 = load ptr, ptr %19, align 8, !tbaa !214
  %21 = call fastcc i32 @H5D__chunk_cache_evict(ptr noundef %0, ptr noundef nonnull %.02333, i1 noundef zeroext true)
  %22 = lshr i32 %21, 31
  %spec.select = add i32 %22, %.02432
  %.not = icmp eq ptr %20, null
  br i1 %.not, label %._crit_edge, label %.lr.ph, !llvm.loop !216

._crit_edge:                                      ; preds = %.lr.ph
  %23 = icmp eq i32 %spec.select, 0
  br i1 %23, label %._crit_edge.thread, label %24

24:                                               ; preds = %._crit_edge
  %25 = load i64, ptr @H5E_IO_g, align 8, !tbaa !21
  %26 = load i64, ptr @H5E_CANTFLUSH_g, align 8, !tbaa !21
  %27 = call i32 (ptr, ptr, i32, i64, i64, ptr, ...) @H5E_printf_stack(ptr noundef nonnull @.str.1, ptr noundef nonnull @__func__.H5D__chunk_dest, i32 noundef 3515, i64 noundef %25, i64 noundef %26, ptr noundef nonnull @.str.47) #15
  br label %._crit_edge.thread

._crit_edge.thread:                               ; preds = %16, %24, %._crit_edge
  %.1 = phi i32 [ -1, %24 ], [ 0, %._crit_edge ], [ 0, %16 ]
  %28 = getelementptr inbounds nuw i8, ptr %5, i64 3704
  %29 = load ptr, ptr %28, align 8, !tbaa !59
  %.not29 = icmp eq ptr %29, null
  br i1 %.not29, label %32, label %30

30:                                               ; preds = %._crit_edge.thread
  %31 = call ptr @H5FL_seq_free(ptr noundef nonnull @H5_H5D_rdcc_ent_ptr_t_seq_free_list, ptr noundef nonnull %29) #15
  br label %32

32:                                               ; preds = %30, %._crit_edge.thread
  call void @llvm.memset.p0.i64(ptr noundef nonnull align 8 dereferenceable(1056) %6, i8 0, i64 1056, i1 false)
  %33 = load ptr, ptr %0, align 8, !tbaa !186
  store ptr %33, ptr %2, align 8, !tbaa !64
  %34 = load ptr, ptr %4, align 8, !tbaa !10
  %35 = getelementptr inbounds nuw i8, ptr %34, i64 144
  %36 = getelementptr inbounds nuw i8, ptr %2, i64 8
  store ptr %35, ptr %36, align 8, !tbaa !69
  %37 = getelementptr inbounds nuw i8, ptr %34, i64 264
  %38 = getelementptr inbounds nuw i8, ptr %2, i64 16
  store ptr %37, ptr %38, align 8, !tbaa !70
  %39 = getelementptr inbounds nuw i8, ptr %2, i64 24
  store ptr %7, ptr %39, align 8, !tbaa !71
  %40 = getelementptr inbounds nuw i8, ptr %5, i64 2184
  %41 = load ptr, ptr %40, align 8, !tbaa !51
  %42 = getelementptr inbounds nuw i8, ptr %41, i64 152
  %43 = load ptr, ptr %42, align 8, !tbaa !76
  %.not30 = icmp eq ptr %43, null
  br i1 %.not30, label %51, label %44

44:                                               ; preds = %32
  %45 = call i32 %43(ptr noundef nonnull %2) #15
  %46 = icmp slt i32 %45, 0
  br i1 %46, label %47, label %51

47:                                               ; preds = %44
  %48 = load i64, ptr @H5E_DATASET_g, align 8, !tbaa !21
  %49 = load i64, ptr @H5E_CANTFREE_g, align 8, !tbaa !21
  %50 = call i32 (ptr, ptr, i32, i64, i64, ptr, ...) @H5E_printf_stack(ptr noundef nonnull @.str.1, ptr noundef nonnull @__func__.H5D__chunk_dest, i32 noundef 3530, i64 noundef %48, i64 noundef %49, ptr noundef nonnull @.str.66) #15
  br label %51

51:                                               ; preds = %47, %44, %32, %1
  %.0 = phi i32 [ -1, %47 ], [ %.1, %44 ], [ %.1, %32 ], [ 0, %1 ]
  %52 = load i64, ptr %3, align 8, !tbaa !21
  call void @H5AC_tag(i64 noundef %52, ptr noundef null) #15
  call void @llvm.lifetime.end.p0(i64 8, ptr nonnull %3) #15
  call void @llvm.lifetime.end.p0(i64 32, ptr nonnull %2) #15
  ret i32 %.0
}